; Function Attrs: nounwind sspstrong uwtable
define internal i64 @sock_gethostname(i64 %0) #0 {
  %2 = tail call i64 @rb_str_new_static(ptr noundef null, i64 noundef 1025) #16
  %3 = inttoptr i64 %2 to ptr
  %4 = getelementptr inbounds nuw i8, ptr %3, i64 24
  br label %5

5:                                                ; preds = %15, %1
  %.0 = phi i64 [ 1025, %1 ], [ %16, %15 ]
  %6 = load i64, ptr %3, align 8, !tbaa !12, !noalias !49
  %7 = and i64 %6, 8192
  %.not.i.i = icmp eq i64 %7, 0
  br i1 %.not.i.i, label %RSTRING_PTR.exit, label %8

8:                                                ; preds = %5
  %.sroa.2.0.copyload.i = load ptr, ptr %4, align 8
  br label %RSTRING_PTR.exit

RSTRING_PTR.exit:                                 ; preds = %5, %8
  %.sroa.2.0.i = phi ptr [ %.sroa.2.0.copyload.i, %8 ], [ %4, %5 ]
  %9 = tail call i32 @gethostname(ptr noundef %.sroa.2.0.i, i64 noundef %.0) #16
  %10 = icmp slt i32 %9, 0
  br i1 %10, label %11, label %17

11:                                               ; preds = %RSTRING_PTR.exit
  %12 = tail call ptr @rb_errno_ptr() #16
  %13 = load i32, ptr %12, align 4, !tbaa !6
  switch i32 %13, label %14 [
    i32 36, label %15
    i32 22, label %15
  ]

14:                                               ; preds = %11
  tail call void @rb_syserr_fail(i32 noundef %13, ptr noundef nonnull @.str.43) #18
  unreachable

15:                                               ; preds = %11, %11
  tail call void @rb_str_modify_expand(i64 noundef %2, i64 noundef %.0) #16
  %16 = shl nsw i64 %.0, 1
  br label %5, !llvm.loop !52

17:                                               ; preds = %RSTRING_PTR.exit
  %18 = load i64, ptr %3, align 8, !tbaa !12, !noalias !53
  %19 = and i64 %18, 8192
  %.not.i.i13 = icmp eq i64 %19, 0
  br i1 %.not.i.i13, label %RSTRING_PTR.exit16, label %20

20:                                               ; preds = %17
  %.sroa.2.0.copyload.i14 = load ptr, ptr %4, align 8
  br label %RSTRING_PTR.exit16

RSTRING_PTR.exit16:                               ; preds = %17, %20
  %.sroa.2.0.i15 = phi ptr [ %.sroa.2.0.copyload.i14, %20 ], [ %4, %17 ]
  %21 = tail call i64 @strlen(ptr noundef nonnull dereferenceable(1) %.sroa.2.0.i15) #19
  %22 = tail call i64 @rb_str_resize(i64 noundef %2, i64 noundef %21) #16
  ret i64 %2
}